; Function Attrs: mustprogress nounwind uwtable
define hidden noundef zeroext i1 @_ZNK13MemoryManager10is_managerE14instanceHandle(ptr noundef nonnull align 8 dereferenceable(113) %0, ptr readonly %1) local_unnamed_addr #2 align 2 {
  %3 = getelementptr inbounds i8, ptr %0, i64 112
  %4 = load volatile i8, ptr %3, align 8
  %5 = trunc i8 %4 to i1
  tail call void asm sideeffect "", "~{memory},~{dirflag},~{fpsr},~{flags}"() #13, !srcloc !6
  br i1 %5, label %6, label %19

6:                                                ; preds = %2
  %7 = icmp eq ptr %1, null
  br i1 %7, label %_ZNK14instanceHandleclEv.exit, label %8

8:                                                ; preds = %6
  %9 = load ptr, ptr %1, align 8
  br label %_ZNK14instanceHandleclEv.exit

_ZNK14instanceHandleclEv.exit:                    ; preds = %6, %8
  %10 = phi ptr [ %9, %8 ], [ null, %6 ]
  %11 = getelementptr inbounds i8, ptr %0, i64 104
  %12 = load ptr, ptr %11, align 8
  %13 = icmp eq ptr %12, null
  br i1 %13, label %_ZNK9OopHandle7resolveEv.exit, label %14

14:                                               ; preds = %_ZNK14instanceHandleclEv.exit
  %15 = load ptr, ptr @_ZN14AccessInternal15RuntimeDispatchILm548932EP7oopDescLNS_11BarrierTypeE2EE10_load_funcE, align 8
  %16 = tail call noundef ptr %15(ptr noundef nonnull %12) #13
  br label %_ZNK9OopHandle7resolveEv.exit

_ZNK9OopHandle7resolveEv.exit:                    ; preds = %_ZNK14instanceHandleclEv.exit, %14
  %17 = phi ptr [ %16, %14 ], [ null, %_ZNK14instanceHandleclEv.exit ]
  %18 = icmp eq ptr %10, %17
  br label %19

19:                                               ; preds = %2, %_ZNK9OopHandle7resolveEv.exit
  %.0 = phi i1 [ %18, %_ZNK9OopHandle7resolveEv.exit ], [ false, %2 ]
  ret i1 %.0
}